target datalayout = "e-m:e-p270:32:32-p271:32:32-p272:64:64-i64:64-i128:128-f80:128-n8:16:32:64-S128"
target triple = "x86_64-pc-linux-gnu"

%struct.IDAMemRec = type { ptr, double, ptr, ptr, i32, double, double, ptr, i32, i32, ptr, ptr, i32, i32, i32, ptr, ptr, i32, i32, double, double, ptr, i32, i32, i32, i32, ptr, ptr, i32, ptr, ptr, ptr, i32, double, i32, i32, double, ptr, ptr, ptr, i32, ptr, ptr, i32, i32, i32, double, ptr, ptr, ptr, [6 x ptr], [6 x double], [6 x double], [6 x double], [6 x double], [6 x double], ptr, ptr, ptr, ptr, ptr, ptr, ptr, ptr, ptr, ptr, ptr, ptr, ptr, ptr, ptr, ptr, ptr, [6 x ptr], ptr, ptr, ptr, ptr, [6 x ptr], ptr, ptr, ptr, ptr, ptr, ptr, ptr, ptr, ptr, ptr, ptr, ptr, ptr, ptr, ptr, ptr, [6 x ptr], ptr, ptr, ptr, ptr, ptr, double, ptr, ptr, i32, i32, i32, i32, i32, i32, i32, i32, double, double, double, i32, double, i32, i32, i32, i32, i32, double, double, double, double, double, double, double, double, double, double, double, double, double, double, double, double, double, i32, i32, i32, i32, i64, double, double, double, double, double, double, double, double, double, i64, i64, i64, i64, i64, i64, i64, i64, i64, i64, i64, i64, i64, i64, i64, i64, i64, i64, i64, i64, i64, i64, i64, i64, i64, i64, double, i32, i32, i32, i32, i32, i32, i32, i32, i32, i32, i32, i32, i32, ptr, i32, ptr, i32, ptr, i32, ptr, ptr, ptr, ptr, ptr, ptr, i32, i32, ptr, ptr, ptr, ptr, ptr, ptr, ptr, double, i32, i32, ptr, i32, ptr, ptr, double, double, double, ptr, ptr, ptr, double, double, i32, i32, i64, ptr, i32, ptr, [5 x double], ptr, ptr, i32, ptr, i32 }
%struct.IDAadjMemRec = type { double, double, i32, i32, double, i32, double, ptr, i32, ptr, i32, ptr, ptr, i32, i64, i64, ptr, i64, i32, ptr, ptr, ptr, ptr, i32, i32, i32, i32, i32, [6 x ptr], [6 x ptr], [6 x double], ptr, ptr, ptr, ptr }
%struct.IDAdtpntMemRec = type { double, ptr }
%struct.IDApolynomialDataMemRec = type { ptr, ptr, ptr, ptr, i32 }

; Function Attrs: nounwind uwtable
define internal void @IDAApolynomialFree(ptr noundef %0) #0 {
  %2 = alloca ptr, align 8
  %3 = alloca ptr, align 8
  %4 = alloca ptr, align 8
  %5 = alloca ptr, align 8
  %6 = alloca i64, align 8
  store ptr %0, ptr %2, align 8, !tbaa !11
  call void @llvm.lifetime.start.p0(i64 8, ptr %3) #6
  call void @llvm.lifetime.start.p0(i64 8, ptr %4) #6
  call void @llvm.lifetime.start.p0(i64 8, ptr %5) #6
  call void @llvm.lifetime.start.p0(i64 8, ptr %6) #6
  %7 = load ptr, ptr %2, align 8, !tbaa !11
  %8 = getelementptr inbounds nuw %struct.IDAMemRec, ptr %7, i32 0, i32 239
  %9 = load ptr, ptr %8, align 8, !tbaa !15
  store ptr %9, ptr %3, align 8, !tbaa !13
  %10 = load ptr, ptr %3, align 8, !tbaa !13
  %11 = getelementptr inbounds nuw %struct.IDAadjMemRec, ptr %10, i32 0, i32 31
  %12 = load ptr, ptr %11, align 8, !tbaa !58
  call void @N_VDestroy(ptr noundef %12)
  %13 = load ptr, ptr %3, align 8, !tbaa !13
  %14 = getelementptr inbounds nuw %struct.IDAadjMemRec, ptr %13, i32 0, i32 32
  %15 = load ptr, ptr %14, align 8, !tbaa !59
  call void @N_VDestroy(ptr noundef %15)
  %16 = load ptr, ptr %3, align 8, !tbaa !13
  %17 = getelementptr inbounds nuw %struct.IDAadjMemRec, ptr %16, i32 0, i32 25
  %18 = load i32, ptr %17, align 8, !tbaa !39
  %19 = icmp ne i32 %18, 0
  br i1 %19, label %20, label %33

20:                                               ; preds = %1
  %21 = load ptr, ptr %3, align 8, !tbaa !13
  %22 = getelementptr inbounds nuw %struct.IDAadjMemRec, ptr %21, i32 0, i32 33
  %23 = load ptr, ptr %22, align 8, !tbaa !61
  %24 = load ptr, ptr %2, align 8, !tbaa !11
  %25 = getelementptr inbounds nuw %struct.IDAMemRec, ptr %24, i32 0, i32 24
  %26 = load i32, ptr %25, align 8, !tbaa !60
  call void @N_VDestroyVectorArray(ptr noundef %23, i32 noundef %26)
  %27 = load ptr, ptr %3, align 8, !tbaa !13
  %28 = getelementptr inbounds nuw %struct.IDAadjMemRec, ptr %27, i32 0, i32 34
  %29 = load ptr, ptr %28, align 8, !tbaa !62
  %30 = load ptr, ptr %2, align 8, !tbaa !11
  %31 = getelementptr inbounds nuw %struct.IDAMemRec, ptr %30, i32 0, i32 24
  %32 = load i32, ptr %31, align 8, !tbaa !60
  call void @N_VDestroyVectorArray(ptr noundef %29, i32 noundef %32)
  br label %33

33:                                               ; preds = %20, %1
  %34 = load ptr, ptr %3, align 8, !tbaa !13
  %35 = getelementptr inbounds nuw %struct.IDAadjMemRec, ptr %34, i32 0, i32 16
  %36 = load ptr, ptr %35, align 8, !tbaa !51
  store ptr %36, ptr %4, align 8, !tbaa !52
  store i64 0, ptr %6, align 8, !tbaa !7
  br label %37

37:                                               ; preds = %101, %33
  %38 = load i64, ptr %6, align 8, !tbaa !7
  %39 = load ptr, ptr %3, align 8, !tbaa !13
  %40 = getelementptr inbounds nuw %struct.IDAadjMemRec, ptr %39, i32 0, i32 14
  %41 = load i64, ptr %40, align 8, !tbaa !32
  %42 = icmp sle i64 %38, %41
  br i1 %42, label %43, label %104

43:                                               ; preds = %37
  %44 = load ptr, ptr %4, align 8, !tbaa !52
  %45 = load i64, ptr %6, align 8, !tbaa !7
  %46 = getelementptr inbounds ptr, ptr %44, i64 %45
  %47 = load ptr, ptr %46, align 8, !tbaa !53
  %48 = getelementptr inbounds nuw %struct.IDAdtpntMemRec, ptr %47, i32 0, i32 1
  %49 = load ptr, ptr %48, align 8, !tbaa !55
  store ptr %49, ptr %5, align 8, !tbaa !75
  %50 = load ptr, ptr %5, align 8, !tbaa !75
  %51 = icmp ne ptr %50, null
  br i1 %51, label %52, label %100

52:                                               ; preds = %43
  %53 = load ptr, ptr %5, align 8, !tbaa !75
  %54 = getelementptr inbounds nuw %struct.IDApolynomialDataMemRec, ptr %53, i32 0, i32 0
  %55 = load ptr, ptr %54, align 8, !tbaa !77
  call void @N_VDestroy(ptr noundef %55)
  %56 = load ptr, ptr %5, align 8, !tbaa !75
  %57 = getelementptr inbounds nuw %struct.IDApolynomialDataMemRec, ptr %56, i32 0, i32 2
  %58 = load ptr, ptr %57, align 8, !tbaa !79
  %59 = icmp ne ptr %58, null
  br i1 %59, label %60, label %64

60:                                               ; preds = %52
  %61 = load ptr, ptr %5, align 8, !tbaa !75
  %62 = getelementptr inbounds nuw %struct.IDApolynomialDataMemRec, ptr %61, i32 0, i32 2
  %63 = load ptr, ptr %62, align 8, !tbaa !79
  call void @N_VDestroy(ptr noundef %63)
  br label %64

64:                                               ; preds = %60, %52
  %65 = load ptr, ptr %3, align 8, !tbaa !13
  %66 = getelementptr inbounds nuw %struct.IDAadjMemRec, ptr %65, i32 0, i32 25
  %67 = load i32, ptr %66, align 8, !tbaa !39
  %68 = icmp ne i32 %67, 0
  br i1 %68, label %69, label %88

69:                                               ; preds = %64
  %70 = load ptr, ptr %5, align 8, !tbaa !75
  %71 = getelementptr inbounds nuw %struct.IDApolynomialDataMemRec, ptr %70, i32 0, i32 1
  %72 = load ptr, ptr %71, align 8, !tbaa !80
  %73 = load ptr, ptr %2, align 8, !tbaa !11
  %74 = getelementptr inbounds nuw %struct.IDAMemRec, ptr %73, i32 0, i32 24
  %75 = load i32, ptr %74, align 8, !tbaa !60
  call void @N_VDestroyVectorArray(ptr noundef %72, i32 noundef %75)
  %76 = load ptr, ptr %5, align 8, !tbaa !75
  %77 = getelementptr inbounds nuw %struct.IDApolynomialDataMemRec, ptr %76, i32 0, i32 3
  %78 = load ptr, ptr %77, align 8, !tbaa !81
  %79 = icmp ne ptr %78, null
  br i1 %79, label %80, label %87

80:                                               ; preds = %69
  %81 = load ptr, ptr %5, align 8, !tbaa !75
  %82 = getelementptr inbounds nuw %struct.IDApolynomialDataMemRec, ptr %81, i32 0, i32 3
  %83 = load ptr, ptr %82, align 8, !tbaa !81
  %84 = load ptr, ptr %2, align 8, !tbaa !11
  %85 = getelementptr inbounds nuw %struct.IDAMemRec, ptr %84, i32 0, i32 24
  %86 = load i32, ptr %85, align 8, !tbaa !60
  call void @N_VDestroyVectorArray(ptr noundef %83, i32 noundef %86)
  br label %87

87:                                               ; preds = %80, %69
  br label %88

88:                                               ; preds = %87, %64
  %89 = load ptr, ptr %4, align 8, !tbaa !52
  %90 = load i64, ptr %6, align 8, !tbaa !7
  %91 = getelementptr inbounds ptr, ptr %89, i64 %90
  %92 = load ptr, ptr %91, align 8, !tbaa !53
  %93 = getelementptr inbounds nuw %struct.IDAdtpntMemRec, ptr %92, i32 0, i32 1
  %94 = load ptr, ptr %93, align 8, !tbaa !55
  call void @free(ptr noundef %94) #6
  %95 = load ptr, ptr %4, align 8, !tbaa !52
  %96 = load i64, ptr %6, align 8, !tbaa !7
  %97 = getelementptr inbounds ptr, ptr %95, i64 %96
  %98 = load ptr, ptr %97, align 8, !tbaa !53
  %99 = getelementptr inbounds nuw %struct.IDAdtpntMemRec, ptr %98, i32 0, i32 1
  store ptr null, ptr %99, align 8, !tbaa !55
  br label %100

100:                                              ; preds = %88, %43
  br label %101

101:                                              ; preds = %100
  %102 = load i64, ptr %6, align 8, !tbaa !7
  %103 = add nsw i64 %102, 1
  store i64 %103, ptr %6, align 8, !tbaa !7
  br label %37

104:                                              ; preds = %37
  call void @llvm.lifetime.end.p0(i64 8, ptr %6) #6
  call void @llvm.lifetime.end.p0(i64 8, ptr %5) #6
  call void @llvm.lifetime.end.p0(i64 8, ptr %4) #6
  call void @llvm.lifetime.end.p0(i64 8, ptr %3) #6
  ret void
}